target datalayout = "e-m:e-p270:32:32-p271:32:32-p272:64:64-i64:64-i128:128-f80:128-n8:16:32:64-S128"
target triple = "x86_64-unknown-linux-gnu"

%"class.rocksdb::Slice" = type { ptr, i64 }
%"class.rocksdb::CuckooTableIterator" = type { %"class.rocksdb::InternalIteratorBase", %"struct.rocksdb::CuckooTableIterator::BucketComparator", ptr, i8, %"class.std::vector.108", i32, %"class.rocksdb::Slice", %"class.rocksdb::IterKey" }
%"class.rocksdb::InternalIteratorBase" = type { ptr, %"class.rocksdb::Cleanable" }
%"class.rocksdb::Cleanable" = type { %"struct.rocksdb::Cleanable::Cleanup" }
%"struct.rocksdb::Cleanable::Cleanup" = type { ptr, ptr, ptr, ptr }
%"struct.rocksdb::CuckooTableIterator::BucketComparator" = type { %"class.rocksdb::Slice", ptr, i32, i32, %"class.rocksdb::Slice" }
%"class.std::vector.108" = type { %"struct.std::_Vector_base.109" }
%"struct.std::_Vector_base.109" = type { %"struct.std::_Vector_base<unsigned int, std::allocator<unsigned int>>::_Vector_impl" }
%"struct.std::_Vector_base<unsigned int, std::allocator<unsigned int>>::_Vector_impl" = type { %"struct.std::_Vector_base<unsigned int, std::allocator<unsigned int>>::_Vector_impl_data" }
%"struct.std::_Vector_base<unsigned int, std::allocator<unsigned int>>::_Vector_impl_data" = type { ptr, ptr, ptr }
%"class.rocksdb::IterKey" = type { ptr, ptr, i64, i64, [39 x i8], i8 }

; Function Attrs: mustprogress nounwind uwtable
define { ptr, i64 } @_ZNK7rocksdb19CuckooTableIterator5valueEv(ptr noundef nonnull align 8 dereferenceable(224) %this) unnamed_addr #1 align 2 {
entry:
  %retval = alloca %"class.rocksdb::Slice", align 8
  %this.addr = alloca ptr, align 8
  store ptr %this, ptr %this.addr, align 8
  %this1 = load ptr, ptr %this.addr, align 8
  %curr_value_ = getelementptr inbounds %"class.rocksdb::CuckooTableIterator", ptr %this1, i32 0, i32 6
  call void @llvm.memcpy.p0.p0.i64(ptr align 8 %retval, ptr align 8 %curr_value_, i64 16, i1 false)
  %0 = load { ptr, i64 }, ptr %retval, align 8
  ret { ptr, i64 } %0
}